target datalayout = "e-m:e-p270:32:32-p271:32:32-p272:64:64-i64:64-i128:128-f80:128-n8:16:32:64-S128"
target triple = "x86_64-pc-linux-gnu"

%struct.SurfaceDataRasInfo = type { %struct.SurfaceDataBounds, ptr, i32, i32, i32, i32, ptr, ptr, ptr, ptr, ptr, ptr, i32, %union.anon.0 }
%struct.SurfaceDataBounds = type { i32, i32, i32, i32 }
%union.anon.0 = type { ptr, [56 x i8] }

; Function Attrs: nounwind uwtable
define hidden void @Index12GrayToIndex12GrayScaleConvert(ptr noundef %0, ptr noundef %1, i32 noundef %2, i32 noundef %3, i32 noundef %4, i32 noundef %5, i32 noundef %6, i32 noundef %7, i32 noundef %8, ptr noundef %9, ptr noundef %10, ptr noundef %11, ptr noundef %12) #0 {
  %14 = alloca ptr, align 8
  %15 = alloca ptr, align 8
  %16 = alloca i32, align 4
  %17 = alloca i32, align 4
  %18 = alloca i32, align 4
  %19 = alloca i32, align 4
  %20 = alloca i32, align 4
  %21 = alloca i32, align 4
  %22 = alloca i32, align 4
  %23 = alloca ptr, align 8
  %24 = alloca ptr, align 8
  %25 = alloca ptr, align 8
  %26 = alloca ptr, align 8
  %27 = alloca ptr, align 8
  %28 = alloca ptr, align 8
  %29 = alloca i32, align 4
  %30 = alloca i32, align 4
  %31 = alloca ptr, align 8
  %32 = alloca ptr, align 8
  %33 = alloca ptr, align 8
  %34 = alloca i32, align 4
  %35 = alloca i32, align 4
  %36 = alloca i32, align 4
  %37 = alloca i32, align 4
  %38 = alloca i32, align 4
  %39 = alloca ptr, align 8
  %40 = alloca ptr, align 8
  %41 = alloca ptr, align 8
  %42 = alloca i32, align 4
  %43 = alloca i32, align 4
  %44 = alloca i32, align 4
  %45 = alloca i32, align 4
  %46 = alloca i32, align 4
  %47 = alloca i32, align 4
  store ptr %0, ptr %14, align 8
  store ptr %1, ptr %15, align 8
  store i32 %2, ptr %16, align 4
  store i32 %3, ptr %17, align 4
  store i32 %4, ptr %18, align 4
  store i32 %5, ptr %19, align 4
  store i32 %6, ptr %20, align 4
  store i32 %7, ptr %21, align 4
  store i32 %8, ptr %22, align 4
  store ptr %9, ptr %23, align 8
  store ptr %10, ptr %24, align 8
  store ptr %11, ptr %25, align 8
  store ptr %12, ptr %26, align 8
  %48 = load ptr, ptr %23, align 8
  %49 = getelementptr inbounds %struct.SurfaceDataRasInfo, ptr %48, i32 0, i32 4
  %50 = load i32, ptr %49, align 8
  store i32 %50, ptr %29, align 4
  %51 = load ptr, ptr %24, align 8
  %52 = getelementptr inbounds %struct.SurfaceDataRasInfo, ptr %51, i32 0, i32 4
  %53 = load i32, ptr %52, align 8
  store i32 %53, ptr %30, align 4
  %54 = load ptr, ptr %23, align 8
  %55 = getelementptr inbounds %struct.SurfaceDataRasInfo, ptr %54, i32 0, i32 6
  %56 = load ptr, ptr %55, align 8
  store ptr %56, ptr %27, align 8
  %57 = load ptr, ptr %24, align 8
  %58 = getelementptr inbounds %struct.SurfaceDataRasInfo, ptr %57, i32 0, i32 6
  %59 = load ptr, ptr %58, align 8
  store ptr %59, ptr %28, align 8
  %60 = load ptr, ptr %27, align 8
  %61 = load ptr, ptr %28, align 8
  %62 = load ptr, ptr %23, align 8
  %63 = load ptr, ptr %24, align 8
  %64 = call zeroext i8 @checkSameLut(ptr noundef %60, ptr noundef %61, ptr noundef %62, ptr noundef %63)
  %65 = icmp ne i8 %64, 0
  br i1 %65, label %66, label %134

66:                                               ; preds = %13
  br label %67

67:                                               ; preds = %66
  %68 = load ptr, ptr %15, align 8
  store ptr %68, ptr %33, align 8
  %69 = load ptr, ptr %23, align 8
  %70 = getelementptr inbounds %struct.SurfaceDataRasInfo, ptr %69, i32 0, i32 4
  %71 = load i32, ptr %70, align 8
  store i32 %71, ptr %34, align 4
  %72 = load ptr, ptr %24, align 8
  %73 = getelementptr inbounds %struct.SurfaceDataRasInfo, ptr %72, i32 0, i32 4
  %74 = load i32, ptr %73, align 8
  store i32 %74, ptr %35, align 4
  %75 = load ptr, ptr %24, align 8
  %76 = getelementptr inbounds %struct.SurfaceDataRasInfo, ptr %75, i32 0, i32 11
  %77 = load ptr, ptr %76, align 8
  store ptr %77, ptr %31, align 8
  %78 = load i32, ptr %16, align 4
  %79 = mul i32 %78, 1
  %80 = load i32, ptr %35, align 4
  %81 = sub i32 %80, %79
  store i32 %81, ptr %35, align 4
  br label %82

82:                                               ; preds = %128, %67
  %83 = load i32, ptr %16, align 4
  store i32 %83, ptr %36, align 4
  %84 = load i32, ptr %18, align 4
  store i32 %84, ptr %37, align 4
  %85 = load ptr, ptr %14, align 8
  %86 = ptrtoint ptr %85 to i64
  %87 = load i32, ptr %19, align 4
  %88 = load i32, ptr %22, align 4
  %89 = ashr i32 %87, %88
  %90 = sext i32 %89 to i64
  %91 = load i32, ptr %34, align 4
  %92 = sext i32 %91 to i64
  %93 = mul nsw i64 %90, %92
  %94 = add nsw i64 %86, %93
  %95 = inttoptr i64 %94 to ptr
  store ptr %95, ptr %32, align 8
  br label %96

96:                                               ; preds = %114, %82
  %97 = load i32, ptr %37, align 4
  %98 = load i32, ptr %22, align 4
  %99 = ashr i32 %97, %98
  store i32 %99, ptr %38, align 4
  %100 = load ptr, ptr %32, align 8
  %101 = load i32, ptr %38, align 4
  %102 = sext i32 %101 to i64
  %103 = getelementptr inbounds i8, ptr %100, i64 %102
  %104 = load i8, ptr %103, align 1
  %105 = load ptr, ptr %33, align 8
  %106 = getelementptr inbounds i8, ptr %105, i64 0
  store i8 %104, ptr %106, align 1
  %107 = load ptr, ptr %33, align 8
  %108 = ptrtoint ptr %107 to i64
  %109 = add nsw i64 %108, 1
  %110 = inttoptr i64 %109 to ptr
  store ptr %110, ptr %33, align 8
  %111 = load i32, ptr %20, align 4
  %112 = load i32, ptr %37, align 4
  %113 = add nsw i32 %112, %111
  store i32 %113, ptr %37, align 4
  br label %114

114:                                              ; preds = %96
  %115 = load i32, ptr %36, align 4
  %116 = add i32 %115, -1
  store i32 %116, ptr %36, align 4
  %117 = icmp ugt i32 %116, 0
  br i1 %117, label %96, label %118, !llvm.loop !38

118:                                              ; preds = %114
  %119 = load ptr, ptr %33, align 8
  %120 = ptrtoint ptr %119 to i64
  %121 = load i32, ptr %35, align 4
  %122 = sext i32 %121 to i64
  %123 = add nsw i64 %120, %122
  %124 = inttoptr i64 %123 to ptr
  store ptr %124, ptr %33, align 8
  %125 = load i32, ptr %21, align 4
  %126 = load i32, ptr %19, align 4
  %127 = add nsw i32 %126, %125
  store i32 %127, ptr %19, align 4
  br label %128

128:                                              ; preds = %118
  %129 = load i32, ptr %17, align 4
  %130 = add i32 %129, -1
  store i32 %130, ptr %17, align 4
  %131 = icmp ugt i32 %130, 0
  br i1 %131, label %82, label %132, !llvm.loop !39

132:                                              ; preds = %128
  br label %133

133:                                              ; preds = %132
  br label %219

134:                                              ; preds = %13
  %135 = load ptr, ptr %24, align 8
  %136 = getelementptr inbounds %struct.SurfaceDataRasInfo, ptr %135, i32 0, i32 11
  %137 = load ptr, ptr %136, align 8
  store ptr %137, ptr %39, align 8
  br label %138

138:                                              ; preds = %134
  %139 = load ptr, ptr %15, align 8
  store ptr %139, ptr %41, align 8
  %140 = load ptr, ptr %23, align 8
  %141 = getelementptr inbounds %struct.SurfaceDataRasInfo, ptr %140, i32 0, i32 4
  %142 = load i32, ptr %141, align 8
  store i32 %142, ptr %42, align 4
  %143 = load ptr, ptr %24, align 8
  %144 = getelementptr inbounds %struct.SurfaceDataRasInfo, ptr %143, i32 0, i32 4
  %145 = load i32, ptr %144, align 8
  store i32 %145, ptr %43, align 4
  %146 = load ptr, ptr %24, align 8
  %147 = getelementptr inbounds %struct.SurfaceDataRasInfo, ptr %146, i32 0, i32 11
  %148 = load ptr, ptr %147, align 8
  store ptr %148, ptr %39, align 8
  %149 = load i32, ptr %16, align 4
  %150 = mul i32 %149, 1
  %151 = load i32, ptr %43, align 4
  %152 = sub i32 %151, %150
  store i32 %152, ptr %43, align 4
  br label %153

153:                                              ; preds = %213, %138
  %154 = load i32, ptr %16, align 4
  store i32 %154, ptr %44, align 4
  %155 = load i32, ptr %18, align 4
  store i32 %155, ptr %45, align 4
  %156 = load ptr, ptr %14, align 8
  %157 = ptrtoint ptr %156 to i64
  %158 = load i32, ptr %19, align 4
  %159 = load i32, ptr %22, align 4
  %160 = ashr i32 %158, %159
  %161 = sext i32 %160 to i64
  %162 = load i32, ptr %42, align 4
  %163 = sext i32 %162 to i64
  %164 = mul nsw i64 %161, %163
  %165 = add nsw i64 %157, %164
  %166 = inttoptr i64 %165 to ptr
  store ptr %166, ptr %40, align 8
  br label %167

167:                                              ; preds = %199, %153
  %168 = load i32, ptr %45, align 4
  %169 = load i32, ptr %22, align 4
  %170 = ashr i32 %168, %169
  store i32 %170, ptr %46, align 4
  br label %171

171:                                              ; preds = %167
  %172 = load ptr, ptr %27, align 8
  %173 = load ptr, ptr %40, align 8
  %174 = load i32, ptr %46, align 4
  %175 = sext i32 %174 to i64
  %176 = getelementptr inbounds i8, ptr %173, i64 %175
  %177 = load i8, ptr %176, align 1
  %178 = zext i8 %177 to i64
  %179 = getelementptr inbounds i32, ptr %172, i64 %178
  %180 = load i32, ptr %179, align 4
  %181 = trunc i32 %180 to i8
  %182 = zext i8 %181 to i32
  store i32 %182, ptr %47, align 4
  %183 = load ptr, ptr %39, align 8
  %184 = load i32, ptr %47, align 4
  %185 = sext i32 %184 to i64
  %186 = getelementptr inbounds i32, ptr %183, i64 %185
  %187 = load i32, ptr %186, align 4
  %188 = trunc i32 %187 to i8
  %189 = load ptr, ptr %41, align 8
  %190 = getelementptr inbounds i8, ptr %189, i64 0
  store i8 %188, ptr %190, align 1
  br label %191

191:                                              ; preds = %171
  %192 = load ptr, ptr %41, align 8
  %193 = ptrtoint ptr %192 to i64
  %194 = add nsw i64 %193, 1
  %195 = inttoptr i64 %194 to ptr
  store ptr %195, ptr %41, align 8
  %196 = load i32, ptr %20, align 4
  %197 = load i32, ptr %45, align 4
  %198 = add nsw i32 %197, %196
  store i32 %198, ptr %45, align 4
  br label %199

199:                                              ; preds = %191
  %200 = load i32, ptr %44, align 4
  %201 = add i32 %200, -1
  store i32 %201, ptr %44, align 4
  %202 = icmp ugt i32 %201, 0
  br i1 %202, label %167, label %203, !llvm.loop !40

203:                                              ; preds = %199
  %204 = load ptr, ptr %41, align 8
  %205 = ptrtoint ptr %204 to i64
  %206 = load i32, ptr %43, align 4
  %207 = sext i32 %206 to i64
  %208 = add nsw i64 %205, %207
  %209 = inttoptr i64 %208 to ptr
  store ptr %209, ptr %41, align 8
  %210 = load i32, ptr %21, align 4
  %211 = load i32, ptr %19, align 4
  %212 = add nsw i32 %211, %210
  store i32 %212, ptr %19, align 4
  br label %213

213:                                              ; preds = %203
  %214 = load i32, ptr %17, align 4
  %215 = add i32 %214, -1
  store i32 %215, ptr %17, align 4
  %216 = icmp ugt i32 %215, 0
  br i1 %216, label %153, label %217, !llvm.loop !41

217:                                              ; preds = %213
  br label %218

218:                                              ; preds = %217
  br label %219

219:                                              ; preds = %218, %133
  ret void
}